; Function Attrs: nounwind uwtable
define ptr @CORD_catn(i32 noundef %0, ...) local_unnamed_addr #0 {
  %2 = alloca [1 x %struct.__va_list_tag], align 16
  call void @llvm.lifetime.start.p0(i64 24, ptr nonnull %2) #16
  call void @llvm.va_start.p0(ptr nonnull %2)
  %3 = icmp sgt i32 %0, 0
  br i1 %3, label %.lr.ph, label %._crit_edge

.lr.ph:                                           ; preds = %1
  %4 = getelementptr inbounds nuw i8, ptr %2, i64 8
  %5 = getelementptr inbounds nuw i8, ptr %2, i64 16
  br label %6

6:                                                ; preds = %.lr.ph, %17
  %.08 = phi ptr [ null, %.lr.ph ], [ %20, %17 ]
  %.057 = phi i32 [ 0, %.lr.ph ], [ %21, %17 ]
  %7 = load i32, ptr %2, align 16
  %8 = icmp ult i32 %7, 41
  br i1 %8, label %9, label %14

9:                                                ; preds = %6
  %10 = load ptr, ptr %5, align 16
  %11 = zext nneg i32 %7 to i64
  %12 = getelementptr i8, ptr %10, i64 %11
  %13 = add nuw nsw i32 %7, 8
  store i32 %13, ptr %2, align 16
  br label %17

14:                                               ; preds = %6
  %15 = load ptr, ptr %4, align 8
  %16 = getelementptr i8, ptr %15, i64 8
  store ptr %16, ptr %4, align 8
  br label %17

17:                                               ; preds = %14, %9
  %18 = phi ptr [ %12, %9 ], [ %15, %14 ]
  %19 = load ptr, ptr %18, align 8, !tbaa !9
  %20 = call ptr @CORD_cat(ptr noundef %.08, ptr noundef %19) #16
  %21 = add nuw nsw i32 %.057, 1
  %exitcond.not = icmp eq i32 %21, %0
  br i1 %exitcond.not, label %._crit_edge, label %6, !llvm.loop !11

._crit_edge:                                      ; preds = %17, %1
  %.0.lcssa = phi ptr [ null, %1 ], [ %20, %17 ]
  call void @llvm.va_end.p0(ptr nonnull %2)
  call void @llvm.lifetime.end.p0(i64 24, ptr nonnull %2) #16
  ret ptr %.0.lcssa
}